target datalayout = "e-m:e-p270:32:32-p271:32:32-p272:64:64-i64:64-i128:128-f80:128-n8:16:32:64-S128"
target triple = "x86_64-unknown-linux-gnu"

%union.anon.0 = type { %struct.QTailQLink }
%struct.QTailQLink = type { ptr, ptr }
%struct.QemuInputHandlerState = type { ptr, ptr, i32, i32, ptr, %union.anon }
%union.anon = type { %struct.QTailQLink }
%struct.QemuInputHandler = type { ptr, i32, ptr, ptr }

@handlers = internal global %union.anon.0 { %struct.QTailQLink { ptr null, ptr @handlers } }, align 8

; Function Attrs: nounwind sspstrong uwtable
define internal ptr @qemu_input_find_handler(i32 noundef %mask, ptr noundef %con) #0 {
entry:
  %retval = alloca ptr, align 8
  %mask.addr = alloca i32, align 4
  %con.addr = alloca ptr, align 8
  %s = alloca ptr, align 8
  store i32 %mask, ptr %mask.addr, align 4
  store ptr %con, ptr %con.addr, align 8
  %0 = load ptr, ptr @handlers, align 8
  store ptr %0, ptr %s, align 8
  br label %for.cond

for.cond:                                         ; preds = %for.inc, %entry
  %1 = load ptr, ptr %s, align 8
  %tobool = icmp ne ptr %1, null
  br i1 %tobool, label %for.body, label %for.end

for.body:                                         ; preds = %for.cond
  %2 = load ptr, ptr %s, align 8
  %con1 = getelementptr inbounds %struct.QemuInputHandlerState, ptr %2, i32 0, i32 4
  %3 = load ptr, ptr %con1, align 8
  %cmp = icmp eq ptr %3, null
  br i1 %cmp, label %if.then, label %lor.lhs.false

lor.lhs.false:                                    ; preds = %for.body
  %4 = load ptr, ptr %s, align 8
  %con2 = getelementptr inbounds %struct.QemuInputHandlerState, ptr %4, i32 0, i32 4
  %5 = load ptr, ptr %con2, align 8
  %6 = load ptr, ptr %con.addr, align 8
  %cmp3 = icmp ne ptr %5, %6
  br i1 %cmp3, label %if.then, label %if.end

if.then:                                          ; preds = %lor.lhs.false, %for.body
  br label %for.inc

if.end:                                           ; preds = %lor.lhs.false
  %7 = load i32, ptr %mask.addr, align 4
  %8 = load ptr, ptr %s, align 8
  %handler = getelementptr inbounds %struct.QemuInputHandlerState, ptr %8, i32 0, i32 1
  %9 = load ptr, ptr %handler, align 8
  %mask4 = getelementptr inbounds %struct.QemuInputHandler, ptr %9, i32 0, i32 1
  %10 = load i32, ptr %mask4, align 8
  %and = and i32 %7, %10
  %tobool5 = icmp ne i32 %and, 0
  br i1 %tobool5, label %if.then6, label %if.end7

if.then6:                                         ; preds = %if.end
  %11 = load ptr, ptr %s, align 8
  store ptr %11, ptr %retval, align 8
  br label %return

if.end7:                                          ; preds = %if.end
  br label %for.inc

for.inc:                                          ; preds = %if.end7, %if.then
  %12 = load ptr, ptr %s, align 8
  %node = getelementptr inbounds %struct.QemuInputHandlerState, ptr %12, i32 0, i32 5
  %13 = load ptr, ptr %node, align 8
  store ptr %13, ptr %s, align 8
  br label %for.cond, !llvm.loop !8

for.end:                                          ; preds = %for.cond
  %14 = load ptr, ptr @handlers, align 8
  store ptr %14, ptr %s, align 8
  br label %for.cond8

for.cond8:                                        ; preds = %for.inc21, %for.end
  %15 = load ptr, ptr %s, align 8
  %tobool9 = icmp ne ptr %15, null
  br i1 %tobool9, label %for.body10, label %for.end23

for.body10:                                       ; preds = %for.cond8
  %16 = load ptr, ptr %s, align 8
  %con11 = getelementptr inbounds %struct.QemuInputHandlerState, ptr %16, i32 0, i32 4
  %17 = load ptr, ptr %con11, align 8
  %cmp12 = icmp ne ptr %17, null
  br i1 %cmp12, label %if.then13, label %if.end14

if.then13:                                        ; preds = %for.body10
  br label %for.inc21

if.end14:                                         ; preds = %for.body10
  %18 = load i32, ptr %mask.addr, align 4
  %19 = load ptr, ptr %s, align 8
  %handler15 = getelementptr inbounds %struct.QemuInputHandlerState, ptr %19, i32 0, i32 1
  %20 = load ptr, ptr %handler15, align 8
  %mask16 = getelementptr inbounds %struct.QemuInputHandler, ptr %20, i32 0, i32 1
  %21 = load i32, ptr %mask16, align 8
  %and17 = and i32 %18, %21
  %tobool18 = icmp ne i32 %and17, 0
  br i1 %tobool18, label %if.then19, label %if.end20

if.then19:                                        ; preds = %if.end14
  %22 = load ptr, ptr %s, align 8
  store ptr %22, ptr %retval, align 8
  br label %return

if.end20:                                         ; preds = %if.end14
  br label %for.inc21

for.inc21:                                        ; preds = %if.end20, %if.then13
  %23 = load ptr, ptr %s, align 8
  %node22 = getelementptr inbounds %struct.QemuInputHandlerState, ptr %23, i32 0, i32 5
  %24 = load ptr, ptr %node22, align 8
  store ptr %24, ptr %s, align 8
  br label %for.cond8, !llvm.loop !9

for.end23:                                        ; preds = %for.cond8
  store ptr null, ptr %retval, align 8
  br label %return

return:                                           ; preds = %for.end23, %if.then19, %if.then6
  %25 = load ptr, ptr %retval, align 8
  ret ptr %25
}

; Function Attrs: nounwind sspstrong uwtable
define dso_local zeroext i1 @qemu_input_is_absolute(ptr noundef %con) #0 {
entry:
  %con.addr = alloca ptr, align 8
  %s = alloca ptr, align 8
  store ptr %con, ptr %con.addr, align 8
  %0 = load ptr, ptr %con.addr, align 8
  %call = call ptr @qemu_input_find_handler(i32 noundef 12, ptr noundef %0)
  store ptr %call, ptr %s, align 8
  %1 = load ptr, ptr %s, align 8
  %cmp = icmp ne ptr %1, null
  br i1 %cmp, label %land.rhs, label %land.end

land.rhs:                                         ; preds = %entry
  %2 = load ptr, ptr %s, align 8
  %handler = getelementptr inbounds %struct.QemuInputHandlerState, ptr %2, i32 0, i32 1
  %3 = load ptr, ptr %handler, align 8
  %mask = getelementptr inbounds %struct.QemuInputHandler, ptr %3, i32 0, i32 1
  %4 = load i32, ptr %mask, align 8
  %and = and i32 %4, 8
  %tobool = icmp ne i32 %and, 0
  br label %land.end

land.end:                                         ; preds = %land.rhs, %entry
  %5 = phi i1 [ false, %entry ], [ %tobool, %land.rhs ]
  ret i1 %5
}