; Function Attrs: nofree norecurse nosync nounwind sspstrong memory(read, inaccessiblemem: none) uwtable
define dso_local zeroext i1 @qemu_input_is_absolute(ptr noundef readnone %con) local_unnamed_addr #4 {
entry:
  %s.014.i = load ptr, ptr @handlers, align 8
  %tobool.not15.i = icmp eq ptr %s.014.i, null
  br i1 %tobool.not15.i, label %land.end, label %for.body.i

for.body.i:                                       ; preds = %entry, %for.inc.i
  %s.016.i = phi ptr [ %s.0.i, %for.inc.i ], [ %s.014.i, %entry ]
  %con1.i = getelementptr inbounds nuw i8, ptr %s.016.i, i64 24
  %0 = load ptr, ptr %con1.i, align 8
  %cmp.i = icmp ne ptr %0, null
  %cmp3.not.i = icmp eq ptr %0, %con
  %or.cond.i = and i1 %cmp.i, %cmp3.not.i
  br i1 %or.cond.i, label %if.end.i, label %for.inc.i

if.end.i:                                         ; preds = %for.body.i
  %handler.i = getelementptr inbounds nuw i8, ptr %s.016.i, i64 8
  %1 = load ptr, ptr %handler.i, align 8
  %mask4.i = getelementptr inbounds nuw i8, ptr %1, i64 8
  %2 = load i32, ptr %mask4.i, align 8
  %and.i = and i32 %2, 12
  %tobool5.not.i = icmp eq i32 %and.i, 0
  br i1 %tobool5.not.i, label %for.inc.i, label %land.rhs

for.inc.i:                                        ; preds = %if.end.i, %for.body.i
  %node.i = getelementptr inbounds nuw i8, ptr %s.016.i, i64 32
  %s.0.i = load ptr, ptr %node.i, align 8
  %tobool.not.i = icmp eq ptr %s.0.i, null
  br i1 %tobool.not.i, label %for.body10.i, label %for.body.i, !llvm.loop !5

for.body10.i:                                     ; preds = %for.inc.i, %for.inc21.i
  %s.119.i = phi ptr [ %s.1.i, %for.inc21.i ], [ %s.014.i, %for.inc.i ]
  %con11.i = getelementptr inbounds nuw i8, ptr %s.119.i, i64 24
  %3 = load ptr, ptr %con11.i, align 8
  %cmp12.not.i = icmp eq ptr %3, null
  br i1 %cmp12.not.i, label %if.end14.i, label %for.inc21.i

if.end14.i:                                       ; preds = %for.body10.i
  %handler15.i = getelementptr inbounds nuw i8, ptr %s.119.i, i64 8
  %4 = load ptr, ptr %handler15.i, align 8
  %mask16.i = getelementptr inbounds nuw i8, ptr %4, i64 8
  %5 = load i32, ptr %mask16.i, align 8
  %and17.i = and i32 %5, 12
  %tobool18.not.i = icmp eq i32 %and17.i, 0
  br i1 %tobool18.not.i, label %for.inc21.i, label %land.rhs

for.inc21.i:                                      ; preds = %if.end14.i, %for.body10.i
  %node22.i = getelementptr inbounds nuw i8, ptr %s.119.i, i64 32
  %s.1.i = load ptr, ptr %node22.i, align 8
  %tobool9.not.i = icmp eq ptr %s.1.i, null
  br i1 %tobool9.not.i, label %land.end, label %for.body10.i, !llvm.loop !7

land.rhs:                                         ; preds = %if.end.i, %if.end14.i
  %6 = phi i32 [ %5, %if.end14.i ], [ %2, %if.end.i ]
  %and = and i32 %6, 8
  %tobool = icmp ne i32 %and, 0
  br label %land.end

land.end:                                         ; preds = %for.inc21.i, %entry, %land.rhs
  %7 = phi i1 [ %tobool, %land.rhs ], [ false, %entry ], [ false, %for.inc21.i ]
  ret i1 %7
}